
/home/avl/Code/riscv-sim/programs/smallbenchmarks/../build/smallbenchmarks/bin/vvadd.riscv:     file format elf32-littleriscv


Disassembly of section .text:

00000100 <user_trap_entry>:
 100:	1a40006f          	j	2a4 <trap_entry>
 104:	00000013          	nop
 108:	00000013          	nop
 10c:	00000013          	nop
 110:	00000013          	nop
 114:	00000013          	nop
 118:	00000013          	nop
 11c:	00000013          	nop
 120:	00000013          	nop
 124:	00000013          	nop
 128:	00000013          	nop
 12c:	00000013          	nop
 130:	00000013          	nop
 134:	00000013          	nop
 138:	00000013          	nop
 13c:	00000013          	nop

00000140 <supervisor_trap_entry>:
 140:	0000006f          	j	140 <supervisor_trap_entry>
 144:	00000013          	nop
 148:	00000013          	nop
 14c:	00000013          	nop
 150:	00000013          	nop
 154:	00000013          	nop
 158:	00000013          	nop
 15c:	00000013          	nop
 160:	00000013          	nop
 164:	00000013          	nop
 168:	00000013          	nop
 16c:	00000013          	nop
 170:	00000013          	nop
 174:	00000013          	nop
 178:	00000013          	nop
 17c:	00000013          	nop

00000180 <hypervisor_trap_entry>:
 180:	0000006f          	j	180 <hypervisor_trap_entry>
 184:	00000013          	nop
 188:	00000013          	nop
 18c:	00000013          	nop
 190:	00000013          	nop
 194:	00000013          	nop
 198:	00000013          	nop
 19c:	00000013          	nop
 1a0:	00000013          	nop
 1a4:	00000013          	nop
 1a8:	00000013          	nop
 1ac:	00000013          	nop
 1b0:	00000013          	nop
 1b4:	00000013          	nop
 1b8:	00000013          	nop
 1bc:	00000013          	nop

000001c0 <machine_trap_entry>:
 1c0:	0e40006f          	j	2a4 <trap_entry>
 1c4:	00000013          	nop
 1c8:	00000013          	nop
 1cc:	00000013          	nop
 1d0:	00000013          	nop
 1d4:	00000013          	nop
 1d8:	00000013          	nop
 1dc:	00000013          	nop
 1e0:	00000013          	nop
 1e4:	00000013          	nop
 1e8:	00000013          	nop
 1ec:	00000013          	nop
 1f0:	00000013          	nop
 1f4:	00000013          	nop
 1f8:	00000013          	nop
 1fc:	00000013          	nop

00000200 <_start>:
 200:	00000093          	li	ra,0
 204:	00000113          	li	sp,0
 208:	00000193          	li	gp,0
 20c:	00000213          	li	tp,0
 210:	00000293          	li	t0,0
 214:	00000313          	li	t1,0
 218:	00000393          	li	t2,0
 21c:	00000413          	li	s0,0
 220:	00000493          	li	s1,0
 224:	00000513          	li	a0,0
 228:	00000593          	li	a1,0
 22c:	00000613          	li	a2,0
 230:	00000693          	li	a3,0
 234:	00000713          	li	a4,0
 238:	00000793          	li	a5,0
 23c:	00000813          	li	a6,0
 240:	00000893          	li	a7,0
 244:	00000913          	li	s2,0
 248:	00000993          	li	s3,0
 24c:	00000a13          	li	s4,0
 250:	00000a93          	li	s5,0
 254:	00000b13          	li	s6,0
 258:	00000b93          	li	s7,0
 25c:	00000c13          	li	s8,0
 260:	00000c93          	li	s9,0
 264:	00000d13          	li	s10,0
 268:	00000d93          	li	s11,0
 26c:	00000e13          	li	t3,0
 270:	00000e93          	li	t4,0
 274:	00000f13          	li	t5,0
 278:	00000f93          	li	t6,0
 27c:	00018193          	mv	gp,gp
 280:	83f18213          	addi	tp,gp,-1985 # ccf <_end+0x3f>
 284:	fc027213          	andi	tp,tp,-64
 288:	f1002573          	csrr	a0,mhartid
 28c:	01151613          	slli	a2,a0,0x11
 290:	00c20233          	add	tp,tp,a2
 294:	00150113          	addi	sp,a0,1
 298:	01111113          	slli	sp,sp,0x11
 29c:	00410133          	add	sp,sp,tp
 2a0:	2040006f          	j	4a4 <_init>

000002a4 <trap_entry>:
 2a4:	ef010113          	addi	sp,sp,-272
 2a8:	00112423          	sw	ra,8(sp)
 2ac:	00212823          	sw	sp,16(sp)
 2b0:	00312c23          	sw	gp,24(sp)
 2b4:	02412023          	sw	tp,32(sp)
 2b8:	02512423          	sw	t0,40(sp)
 2bc:	02612823          	sw	t1,48(sp)
 2c0:	02712c23          	sw	t2,56(sp)
 2c4:	04812023          	sw	s0,64(sp)
 2c8:	04912423          	sw	s1,72(sp)
 2cc:	04a12823          	sw	a0,80(sp)
 2d0:	04b12c23          	sw	a1,88(sp)
 2d4:	06c12023          	sw	a2,96(sp)
 2d8:	06d12423          	sw	a3,104(sp)
 2dc:	06e12823          	sw	a4,112(sp)
 2e0:	06f12c23          	sw	a5,120(sp)
 2e4:	09012023          	sw	a6,128(sp)
 2e8:	09112423          	sw	a7,136(sp)
 2ec:	09212823          	sw	s2,144(sp)
 2f0:	09312c23          	sw	s3,152(sp)
 2f4:	0b412023          	sw	s4,160(sp)
 2f8:	0b512423          	sw	s5,168(sp)
 2fc:	0b612823          	sw	s6,176(sp)
 300:	0b712c23          	sw	s7,184(sp)
 304:	0d812023          	sw	s8,192(sp)
 308:	0d912423          	sw	s9,200(sp)
 30c:	0da12823          	sw	s10,208(sp)
 310:	0db12c23          	sw	s11,216(sp)
 314:	0fc12023          	sw	t3,224(sp)
 318:	0fd12423          	sw	t4,232(sp)
 31c:	0fe12823          	sw	t5,240(sp)
 320:	0ff12c23          	sw	t6,248(sp)
 324:	34202573          	csrr	a0,mcause
 328:	341025f3          	csrr	a1,mepc
 32c:	00010613          	mv	a2,sp
 330:	16c000ef          	jal	49c <handle_trap>
 334:	34151073          	csrw	mepc,a0
 338:	00812083          	lw	ra,8(sp)
 33c:	01012103          	lw	sp,16(sp)
 340:	01812183          	lw	gp,24(sp)
 344:	02012203          	lw	tp,32(sp)
 348:	02812283          	lw	t0,40(sp)
 34c:	03012303          	lw	t1,48(sp)
 350:	03812383          	lw	t2,56(sp)
 354:	04012403          	lw	s0,64(sp)
 358:	04812483          	lw	s1,72(sp)
 35c:	05012503          	lw	a0,80(sp)
 360:	05812583          	lw	a1,88(sp)
 364:	06012603          	lw	a2,96(sp)
 368:	06812683          	lw	a3,104(sp)
 36c:	07012703          	lw	a4,112(sp)
 370:	07812783          	lw	a5,120(sp)
 374:	08012803          	lw	a6,128(sp)
 378:	08812883          	lw	a7,136(sp)
 37c:	09012903          	lw	s2,144(sp)
 380:	09812983          	lw	s3,152(sp)
 384:	0a012a03          	lw	s4,160(sp)
 388:	0a812a83          	lw	s5,168(sp)
 38c:	0b012b03          	lw	s6,176(sp)
 390:	0b812b83          	lw	s7,184(sp)
 394:	0c012c03          	lw	s8,192(sp)
 398:	0c812c83          	lw	s9,200(sp)
 39c:	0d012d03          	lw	s10,208(sp)
 3a0:	0d812d83          	lw	s11,216(sp)
 3a4:	0e012e03          	lw	t3,224(sp)
 3a8:	0e812e83          	lw	t4,232(sp)
 3ac:	0f012f03          	lw	t5,240(sp)
 3b0:	0f812f83          	lw	t6,248(sp)
 3b4:	11010113          	addi	sp,sp,272
 3b8:	10000073          	eret

000003bc <vvadd>:
 3bc:	02a05663          	blez	a0,3e8 <vvadd+0x2c>
 3c0:	00251513          	slli	a0,a0,0x2
 3c4:	00a58533          	add	a0,a1,a0
 3c8:	0005a783          	lw	a5,0(a1)
 3cc:	00062703          	lw	a4,0(a2)
 3d0:	00458593          	addi	a1,a1,4
 3d4:	00460613          	addi	a2,a2,4
 3d8:	00e787b3          	add	a5,a5,a4
 3dc:	00f6a023          	sw	a5,0(a3)
 3e0:	00468693          	addi	a3,a3,4
 3e4:	fea592e3          	bne	a1,a0,3c8 <vvadd+0xc>
 3e8:	00008067          	ret

000003ec <printInt>:
 3ec:	01051713          	slli	a4,a0,0x10
 3f0:	01075713          	srli	a4,a4,0x10
 3f4:	000207b7          	lui	a5,0x20
 3f8:	00f767b3          	or	a5,a4,a5
 3fc:	78079073          	csrw	mtohost,a5
 400:	000307b7          	lui	a5,0x30
 404:	01055513          	srli	a0,a0,0x10
 408:	00f56533          	or	a0,a0,a5
 40c:	78051073          	csrw	mtohost,a0
 410:	00008067          	ret

00000414 <printChar>:
 414:	01051513          	slli	a0,a0,0x10
 418:	000107b7          	lui	a5,0x10
 41c:	01055513          	srli	a0,a0,0x10
 420:	00f56533          	or	a0,a0,a5
 424:	78051073          	csrw	mtohost,a0
 428:	00008067          	ret

0000042c <printStr>:
 42c:	ffc57713          	andi	a4,a0,-4
 430:	00357793          	andi	a5,a0,3
 434:	00072703          	lw	a4,0(a4)
 438:	00379693          	slli	a3,a5,0x3
 43c:	0ff00613          	li	a2,255
 440:	00d617b3          	sll	a5,a2,a3
 444:	00e7f7b3          	and	a5,a5,a4
 448:	00d7d7b3          	srl	a5,a5,a3
 44c:	02078e63          	beqz	a5,488 <printStr+0x5c>
 450:	000105b7          	lui	a1,0x10
 454:	fff58813          	addi	a6,a1,-1 # ffff <_gp+0xeb6f>
 458:	0107f7b3          	and	a5,a5,a6
 45c:	00b7e7b3          	or	a5,a5,a1
 460:	78079073          	csrw	mtohost,a5
 464:	00150513          	addi	a0,a0,1
 468:	ffc57713          	andi	a4,a0,-4
 46c:	00357793          	andi	a5,a0,3
 470:	00072703          	lw	a4,0(a4)
 474:	00379693          	slli	a3,a5,0x3
 478:	00d617b3          	sll	a5,a2,a3
 47c:	00e7f7b3          	and	a5,a5,a4
 480:	00d7d7b3          	srl	a5,a5,a3
 484:	fc079ae3          	bnez	a5,458 <printStr+0x2c>
 488:	00008067          	ret

0000048c <toHostExit>:
 48c:	01051513          	slli	a0,a0,0x10
 490:	01055513          	srli	a0,a0,0x10
 494:	78051073          	csrw	mtohost,a0
 498:	0000006f          	j	498 <toHostExit+0xc>

0000049c <handle_trap>:
 49c:	00458513          	addi	a0,a1,4
 4a0:	00008067          	ret

000004a4 <_init>:
 4a4:	ff010113          	addi	sp,sp,-16
 4a8:	00000593          	li	a1,0
 4ac:	00000513          	li	a0,0
 4b0:	00112623          	sw	ra,12(sp)
 4b4:	014000ef          	jal	4c8 <main>
 4b8:	01051513          	slli	a0,a0,0x10
 4bc:	01055513          	srli	a0,a0,0x10
 4c0:	78051073          	csrw	mtohost,a0
 4c4:	0000006f          	j	4c4 <_init+0x20>

Disassembly of section .text.startup:

000004c8 <main>:
 4c8:	00000537          	lui	a0,0x0
 4cc:	de010113          	addi	sp,sp,-544
 4d0:	64450513          	addi	a0,a0,1604 # 644 <main+0x17c>
 4d4:	20112e23          	sw	ra,540(sp)
 4d8:	20812c23          	sw	s0,536(sp)
 4dc:	20912a23          	sw	s1,532(sp)
 4e0:	21212823          	sw	s2,528(sp)
 4e4:	21312623          	sw	s3,524(sp)
 4e8:	f45ff0ef          	jal	42c <printStr>
 4ec:	c00029f3          	rdcycle	s3
 4f0:	c02028f3          	rdinstret	a7
 4f4:	69000413          	li	s0,1680
 4f8:	20040693          	addi	a3,s0,512
 4fc:	00010493          	mv	s1,sp
 500:	69000793          	li	a5,1680
 504:	00068813          	mv	a6,a3
 508:	00010613          	mv	a2,sp
 50c:	0007a703          	lw	a4,0(a5) # 10000 <_gp+0xeb70>
 510:	0006a583          	lw	a1,0(a3)
 514:	00478793          	addi	a5,a5,4
 518:	00468693          	addi	a3,a3,4
 51c:	00b70733          	add	a4,a4,a1
 520:	00e62023          	sw	a4,0(a2)
 524:	00460613          	addi	a2,a2,4
 528:	ff0792e3          	bne	a5,a6,50c <main+0x44>
 52c:	c00027f3          	rdcycle	a5
 530:	413789b3          	sub	s3,a5,s3
 534:	c0202973          	rdinstret	s2
 538:	00000537          	lui	a0,0x0
 53c:	65850513          	addi	a0,a0,1624 # 658 <main+0x190>
 540:	41190933          	sub	s2,s2,a7
 544:	ee9ff0ef          	jal	42c <printStr>
 548:	00098513          	mv	a0,s3
 54c:	ea1ff0ef          	jal	3ec <printInt>
 550:	00a00513          	li	a0,10
 554:	ec1ff0ef          	jal	414 <printChar>
 558:	00000537          	lui	a0,0x0
 55c:	66450513          	addi	a0,a0,1636 # 664 <main+0x19c>
 560:	ecdff0ef          	jal	42c <printStr>
 564:	00090513          	mv	a0,s2
 568:	e85ff0ef          	jal	3ec <printInt>
 56c:	00a00513          	li	a0,10
 570:	ea5ff0ef          	jal	414 <printChar>
 574:	40040793          	addi	a5,s0,1024
 578:	00000513          	li	a0,0
 57c:	08000613          	li	a2,128
 580:	00c0006f          	j	58c <main+0xc4>
 584:	00150513          	addi	a0,a0,1
 588:	04c50c63          	beq	a0,a2,5e0 <main+0x118>
 58c:	0004a683          	lw	a3,0(s1)
 590:	0007a703          	lw	a4,0(a5)
 594:	00448493          	addi	s1,s1,4
 598:	00478793          	addi	a5,a5,4
 59c:	fee684e3          	beq	a3,a4,584 <main+0xbc>
 5a0:	00150413          	addi	s0,a0,1
 5a4:	00000537          	lui	a0,0x0
 5a8:	67050513          	addi	a0,a0,1648 # 670 <main+0x1a8>
 5ac:	e81ff0ef          	jal	42c <printStr>
 5b0:	00040513          	mv	a0,s0
 5b4:	e39ff0ef          	jal	3ec <printInt>
 5b8:	00a00513          	li	a0,10
 5bc:	e59ff0ef          	jal	414 <printChar>
 5c0:	21c12083          	lw	ra,540(sp)
 5c4:	00040513          	mv	a0,s0
 5c8:	21412483          	lw	s1,532(sp)
 5cc:	21812403          	lw	s0,536(sp)
 5d0:	21012903          	lw	s2,528(sp)
 5d4:	20c12983          	lw	s3,524(sp)
 5d8:	22010113          	addi	sp,sp,544
 5dc:	00008067          	ret
 5e0:	00000413          	li	s0,0
 5e4:	fc1ff06f          	j	5a4 <main+0xdc>
 5e8:	00000637          	lui	a2,0x0
 5ec:	67860793          	addi	a5,a2,1656 # 678 <main+0x1b0>
 5f0:	ffc7f793          	andi	a5,a5,-4
 5f4:	0007c783          	lbu	a5,0(a5)
 5f8:	04078263          	beqz	a5,63c <main+0x174>
 5fc:	000105b7          	lui	a1,0x10
 600:	67860613          	addi	a2,a2,1656
 604:	fff58813          	addi	a6,a1,-1 # ffff <_gp+0xeb6f>
 608:	0ff00513          	li	a0,255
 60c:	0107f7b3          	and	a5,a5,a6
 610:	00b7e7b3          	or	a5,a5,a1
 614:	78079073          	csrw	mtohost,a5
 618:	00160613          	addi	a2,a2,1
 61c:	ffc67713          	andi	a4,a2,-4
 620:	00367793          	andi	a5,a2,3
 624:	00072703          	lw	a4,0(a4)
 628:	00379693          	slli	a3,a5,0x3
 62c:	00d517b3          	sll	a5,a0,a3
 630:	00e7f7b3          	and	a5,a5,a4
 634:	00d7d7b3          	srl	a5,a5,a3
 638:	fc079ae3          	bnez	a5,60c <main+0x144>
 63c:	fff00513          	li	a0,-1
 640:	00008067          	ret

Disassembly of section .data:

00000690 <input1_data>:
 690:	00000029 00000341 00000234 000000bb     )...A...4.......
 6a0:	000002ed 0000015e 00000084 000003b5     ....^...........
 6b0:	00000248 00000325 0000026d 00000006     H...%...m.......
 6c0:	000003a3 0000037a 00000188 000002b6     ....z...........
 6d0:	000003c1 0000006e 00000074 00000128     ....n...t...(...
 6e0:	000001aa 0000013a 00000293 00000306     ....:...........
 6f0:	0000013f 000002a6 0000036b 00000178     ?.......k...x...
 700:	000001da 000003aa 0000021b 00000239     ............9...
 710:	000000cb 00000118 000002f7 0000025e     ............^...
 720:	000001ff 00000291 000000c3 00000051     ............Q...
 730:	0000010b 000000e5 00000151 000003b0     ........Q.......
 740:	00000386 000000f1 00000391 0000033a     ............:...
 750:	000003a5 000003d9 000000c3 000003c0     ................
 760:	00000236 0000015e 00000289 00000291     6...^...........
 770:	000000b5 0000006f 0000035b 00000041     ....o...[...A...
 780:	00000120 0000015d 0000008d 00000389      ...]...........
 790:	00000376 00000108 00000240 000003d3     v.......@.......
 7a0:	000002f9 000000f1 000001de 000001f3     ................
 7b0:	00000193 000000de 000001bc 000002d1     ................
 7c0:	000002a4 0000013d 000000e0 000003a9     ....=...........
 7d0:	00000120 00000077 00000267 0000025e      ...w...g...^...
 7e0:	00000185 0000015f 000001c7 00000116     ...._...........
 7f0:	0000016f 00000166 00000248 0000003e     o...f...H...>...
 800:	000003d9 00000193 0000015a 00000205     ........Z.......
 810:	0000022f 0000038c 00000307 000000ff     /...............
 820:	0000030a 00000256 0000008f 00000021     ....V.......!...
 830:	0000007d 000003ad 000003a5 0000031f     }...............
 840:	00000229 000001af 00000288 000003b8     )...............
 850:	0000011f 00000013 00000031 00000056     ........1...V...
 860:	0000005f 000001b9 0000024b 00000266     _.......K...f...
 870:	0000017e 00000118 00000328 000003cb     ~.......(.......
 880:	00000333 00000158 000001c2 00000200     3...X...........

00000890 <input2_data>:
 890:	000001c6 0000014f 00000001 000003dd     ....O...........
 8a0:	0000016d 0000023c 00000040 00000099     m...<...@.......
 8b0:	000000d8 0000008c 000000d2 0000023c     ............<...
 8c0:	00000153 00000251 00000382 000000e4     S...Q...........
 8d0:	0000000c 00000373 000002ee 00000286     ....s...........
 8e0:	000001f4 000001b4 000002bd 0000032c     ............,...
 8f0:	000003d5 00000096 000002b8 00000234     ............4...
 900:	00000110 00000102 00000287 000001fd     ................
 910:	00000058 000002bf 0000029d 00000177     X...........w...
 920:	00000227 000003a8 00000250 00000239     '.......P...9...
 930:	000003b8 00000320 00000248 00000283     .... ...H.......
 940:	00000170 000001e9 00000148 00000139     p.......H...9...
 950:	00000250 00000184 0000021f 00000289     P...............
 960:	000003d3 000003e5 0000032e 0000004f     ............O...
 970:	000000d0 000003e6 00000275 0000034f     ........u...O...
 980:	000002c0 000003e5 000000fd 000002cb     ................
 990:	000001ae 0000019f 0000021a 000002bc     ................
 9a0:	00000004 000001ee 00000064 00000360     ........d...`...
 9b0:	000002b5 000001a0 00000128 0000011d     ........(.......
 9c0:	0000026c 0000004e 0000015f 0000021c     l...N..._.......
 9d0:	00000286 000000a9 0000020f 00000121     ............!...
 9e0:	0000031c 00000321 000002d0 000002f6     ....!...........
 9f0:	000002e9 0000005c 000003dd 0000010f     ....\...........
 a00:	00000355 00000314 00000213 000000de     U...............
 a10:	000001cd 000000f1 00000166 0000014c     ........f...L...
 a20:	000002ac 000002e4 000001be 00000137     ............7...
 a30:	000002e7 0000022d 000001df 0000022d     ....-.......-...
 a40:	0000039d 0000031c 00000165 0000037b     ........e...{...
 a50:	0000029a 00000202 0000022d 00000366     ........-...f...
 a60:	00000355 000001b8 0000003d 000002a6     U.......=.......
 a70:	0000018c 00000009 00000011 000000aa     ................
 a80:	00000123 0000017c 00000218 000000b9     #...|...........

00000a90 <verify_data>:
 a90:	000001ef 00000490 00000235 00000498     ........5.......
 aa0:	0000045a 0000039a 000000c4 0000044e     Z...........N...
 ab0:	00000320 000003b1 0000033f 00000242      .......?...B...
 ac0:	000004f6 000005cb 0000050a 0000039a     ................
 ad0:	000003cd 000003e1 00000362 000003ae     ........b.......
 ae0:	0000039e 000002ee 00000550 00000632     ........P...2...
 af0:	00000514 0000033c 00000623 000003ac     ....<...#.......
 b00:	000002ea 000004ac 000004a2 00000436     ............6...
 b10:	00000123 000003d7 00000594 000003d5     #...............
 b20:	00000426 00000639 00000313 0000028a     &...9...........
 b30:	000004c3 00000405 00000399 00000633     ............3...
 b40:	000004f6 000002da 000004d9 00000473     ............s...
 b50:	000005f5 0000055d 000002e2 00000649     ....].......I...
 b60:	00000609 00000543 000005b7 000002e0     ....C...........
 b70:	00000185 00000455 000005d0 00000390     ....U...........
 b80:	000003e0 00000542 0000018a 00000654     ....B.......T...
 b90:	00000524 000002a7 0000045a 0000068f     $.......Z.......
 ba0:	000002fd 000002df 00000242 00000553     ........B...S...
 bb0:	00000448 0000027e 000002e4 000003ee     H...~...........
 bc0:	00000510 0000018b 0000023f 000005c5     ........?.......
 bd0:	000003a6 00000120 00000476 0000037f     .... ...v.......
 be0:	000004a1 00000480 00000497 0000040c     ................
 bf0:	00000458 000001c2 00000625 0000014d     X.......%...M...
 c00:	0000072e 000004a7 0000036d 000002e3     ........m.......
 c10:	000003fc 0000047d 0000046d 0000024b     ....}...m...K...
 c20:	000005b6 0000053a 0000024d 00000158     ....:...M...X...
 c30:	00000364 000005da 00000584 0000054c     d...........L...
 c40:	000005c6 000004cb 000003ed 00000733     ............3...
 c50:	000003b9 00000215 0000025e 000003bc     ........^.......
 c60:	000003b4 00000371 00000288 0000050c     ....q...........
 c70:	0000030a 00000121 00000339 00000475     ....!...9...u...
 c80:	00000456 000002d4 000003da 000002b9     V...............
