
/home/avl/Code/riscv-sim/programs/bigbenchmarks/../build/bigbenchmarks/bin/multiply.riscv:     file format elf32-littleriscv


Disassembly of section .text:

00000100 <user_trap_entry>:
 100:	1a40006f          	j	2a4 <trap_entry>
 104:	00000013          	nop
 108:	00000013          	nop
 10c:	00000013          	nop
 110:	00000013          	nop
 114:	00000013          	nop
 118:	00000013          	nop
 11c:	00000013          	nop
 120:	00000013          	nop
 124:	00000013          	nop
 128:	00000013          	nop
 12c:	00000013          	nop
 130:	00000013          	nop
 134:	00000013          	nop
 138:	00000013          	nop
 13c:	00000013          	nop

00000140 <supervisor_trap_entry>:
 140:	0000006f          	j	140 <supervisor_trap_entry>
 144:	00000013          	nop
 148:	00000013          	nop
 14c:	00000013          	nop
 150:	00000013          	nop
 154:	00000013          	nop
 158:	00000013          	nop
 15c:	00000013          	nop
 160:	00000013          	nop
 164:	00000013          	nop
 168:	00000013          	nop
 16c:	00000013          	nop
 170:	00000013          	nop
 174:	00000013          	nop
 178:	00000013          	nop
 17c:	00000013          	nop

00000180 <hypervisor_trap_entry>:
 180:	0000006f          	j	180 <hypervisor_trap_entry>
 184:	00000013          	nop
 188:	00000013          	nop
 18c:	00000013          	nop
 190:	00000013          	nop
 194:	00000013          	nop
 198:	00000013          	nop
 19c:	00000013          	nop
 1a0:	00000013          	nop
 1a4:	00000013          	nop
 1a8:	00000013          	nop
 1ac:	00000013          	nop
 1b0:	00000013          	nop
 1b4:	00000013          	nop
 1b8:	00000013          	nop
 1bc:	00000013          	nop

000001c0 <machine_trap_entry>:
 1c0:	0e40006f          	j	2a4 <trap_entry>
 1c4:	00000013          	nop
 1c8:	00000013          	nop
 1cc:	00000013          	nop
 1d0:	00000013          	nop
 1d4:	00000013          	nop
 1d8:	00000013          	nop
 1dc:	00000013          	nop
 1e0:	00000013          	nop
 1e4:	00000013          	nop
 1e8:	00000013          	nop
 1ec:	00000013          	nop
 1f0:	00000013          	nop
 1f4:	00000013          	nop
 1f8:	00000013          	nop
 1fc:	00000013          	nop

00000200 <_start>:
 200:	00000093          	li	ra,0
 204:	00000113          	li	sp,0
 208:	00000193          	li	gp,0
 20c:	00000213          	li	tp,0
 210:	00000293          	li	t0,0
 214:	00000313          	li	t1,0
 218:	00000393          	li	t2,0
 21c:	00000413          	li	s0,0
 220:	00000493          	li	s1,0
 224:	00000513          	li	a0,0
 228:	00000593          	li	a1,0
 22c:	00000613          	li	a2,0
 230:	00000693          	li	a3,0
 234:	00000713          	li	a4,0
 238:	00000793          	li	a5,0
 23c:	00000813          	li	a6,0
 240:	00000893          	li	a7,0
 244:	00000913          	li	s2,0
 248:	00000993          	li	s3,0
 24c:	00000a13          	li	s4,0
 250:	00000a93          	li	s5,0
 254:	00000b13          	li	s6,0
 258:	00000b93          	li	s7,0
 25c:	00000c13          	li	s8,0
 260:	00000c93          	li	s9,0
 264:	00000d13          	li	s10,0
 268:	00000d93          	li	s11,0
 26c:	00000e13          	li	t3,0
 270:	00000e93          	li	t4,0
 274:	00000f13          	li	t5,0
 278:	00000f93          	li	t6,0
 27c:	00018193          	mv	gp,gp
 280:	83f18213          	addi	tp,gp,-1985 # f707 <_end+0x3f>
 284:	fc027213          	andi	tp,tp,-64
 288:	f1002573          	csrr	a0,mhartid
 28c:	01151613          	slli	a2,a0,0x11
 290:	00c20233          	add	tp,tp,a2
 294:	00150113          	addi	sp,a0,1
 298:	01111113          	slli	sp,sp,0x11
 29c:	00410133          	add	sp,sp,tp
 2a0:	2000006f          	j	4a0 <_init>

000002a4 <trap_entry>:
 2a4:	ef010113          	addi	sp,sp,-272
 2a8:	00112423          	sw	ra,8(sp)
 2ac:	00212823          	sw	sp,16(sp)
 2b0:	00312c23          	sw	gp,24(sp)
 2b4:	02412023          	sw	tp,32(sp)
 2b8:	02512423          	sw	t0,40(sp)
 2bc:	02612823          	sw	t1,48(sp)
 2c0:	02712c23          	sw	t2,56(sp)
 2c4:	04812023          	sw	s0,64(sp)
 2c8:	04912423          	sw	s1,72(sp)
 2cc:	04a12823          	sw	a0,80(sp)
 2d0:	04b12c23          	sw	a1,88(sp)
 2d4:	06c12023          	sw	a2,96(sp)
 2d8:	06d12423          	sw	a3,104(sp)
 2dc:	06e12823          	sw	a4,112(sp)
 2e0:	06f12c23          	sw	a5,120(sp)
 2e4:	09012023          	sw	a6,128(sp)
 2e8:	09112423          	sw	a7,136(sp)
 2ec:	09212823          	sw	s2,144(sp)
 2f0:	09312c23          	sw	s3,152(sp)
 2f4:	0b412023          	sw	s4,160(sp)
 2f8:	0b512423          	sw	s5,168(sp)
 2fc:	0b612823          	sw	s6,176(sp)
 300:	0b712c23          	sw	s7,184(sp)
 304:	0d812023          	sw	s8,192(sp)
 308:	0d912423          	sw	s9,200(sp)
 30c:	0da12823          	sw	s10,208(sp)
 310:	0db12c23          	sw	s11,216(sp)
 314:	0fc12023          	sw	t3,224(sp)
 318:	0fd12423          	sw	t4,232(sp)
 31c:	0fe12823          	sw	t5,240(sp)
 320:	0ff12c23          	sw	t6,248(sp)
 324:	34202573          	csrr	a0,mcause
 328:	341025f3          	csrr	a1,mepc
 32c:	00010613          	mv	a2,sp
 330:	168000ef          	jal	498 <handle_trap>
 334:	34151073          	csrw	mepc,a0
 338:	00812083          	lw	ra,8(sp)
 33c:	01012103          	lw	sp,16(sp)
 340:	01812183          	lw	gp,24(sp)
 344:	02012203          	lw	tp,32(sp)
 348:	02812283          	lw	t0,40(sp)
 34c:	03012303          	lw	t1,48(sp)
 350:	03812383          	lw	t2,56(sp)
 354:	04012403          	lw	s0,64(sp)
 358:	04812483          	lw	s1,72(sp)
 35c:	05012503          	lw	a0,80(sp)
 360:	05812583          	lw	a1,88(sp)
 364:	06012603          	lw	a2,96(sp)
 368:	06812683          	lw	a3,104(sp)
 36c:	07012703          	lw	a4,112(sp)
 370:	07812783          	lw	a5,120(sp)
 374:	08012803          	lw	a6,128(sp)
 378:	08812883          	lw	a7,136(sp)
 37c:	09012903          	lw	s2,144(sp)
 380:	09812983          	lw	s3,152(sp)
 384:	0a012a03          	lw	s4,160(sp)
 388:	0a812a83          	lw	s5,168(sp)
 38c:	0b012b03          	lw	s6,176(sp)
 390:	0b812b83          	lw	s7,184(sp)
 394:	0c012c03          	lw	s8,192(sp)
 398:	0c812c83          	lw	s9,200(sp)
 39c:	0d012d03          	lw	s10,208(sp)
 3a0:	0d812d83          	lw	s11,216(sp)
 3a4:	0e012e03          	lw	t3,224(sp)
 3a8:	0e812e83          	lw	t4,232(sp)
 3ac:	0f012f03          	lw	t5,240(sp)
 3b0:	0f812f83          	lw	t6,248(sp)
 3b4:	11010113          	addi	sp,sp,272
 3b8:	10000073          	eret

000003bc <multiply>:
 3bc:	00050693          	mv	a3,a0
 3c0:	02000713          	li	a4,32
 3c4:	00000513          	li	a0,0
 3c8:	0016f793          	andi	a5,a3,1
 3cc:	fff70713          	addi	a4,a4,-1
 3d0:	00078463          	beqz	a5,3d8 <multiply+0x1c>
 3d4:	00b50533          	add	a0,a0,a1
 3d8:	4016d693          	srai	a3,a3,0x1
 3dc:	00159593          	slli	a1,a1,0x1
 3e0:	fe0714e3          	bnez	a4,3c8 <multiply+0xc>
 3e4:	00008067          	ret

000003e8 <printInt>:
 3e8:	01051713          	slli	a4,a0,0x10
 3ec:	01075713          	srli	a4,a4,0x10
 3f0:	000207b7          	lui	a5,0x20
 3f4:	00f767b3          	or	a5,a4,a5
 3f8:	78079073          	csrw	mtohost,a5
 3fc:	000307b7          	lui	a5,0x30
 400:	01055513          	srli	a0,a0,0x10
 404:	00f56533          	or	a0,a0,a5
 408:	78051073          	csrw	mtohost,a0
 40c:	00008067          	ret

00000410 <printChar>:
 410:	01051513          	slli	a0,a0,0x10
 414:	000107b7          	lui	a5,0x10
 418:	01055513          	srli	a0,a0,0x10
 41c:	00f56533          	or	a0,a0,a5
 420:	78051073          	csrw	mtohost,a0
 424:	00008067          	ret

00000428 <printStr>:
 428:	ffc57713          	andi	a4,a0,-4
 42c:	00357793          	andi	a5,a0,3
 430:	00072703          	lw	a4,0(a4)
 434:	00379693          	slli	a3,a5,0x3
 438:	0ff00613          	li	a2,255
 43c:	00d617b3          	sll	a5,a2,a3
 440:	00e7f7b3          	and	a5,a5,a4
 444:	00d7d7b3          	srl	a5,a5,a3
 448:	02078e63          	beqz	a5,484 <printStr+0x5c>
 44c:	000105b7          	lui	a1,0x10
 450:	fff58813          	addi	a6,a1,-1 # ffff <_gp+0x137>
 454:	0107f7b3          	and	a5,a5,a6
 458:	00b7e7b3          	or	a5,a5,a1
 45c:	78079073          	csrw	mtohost,a5
 460:	00150513          	addi	a0,a0,1
 464:	ffc57713          	andi	a4,a0,-4
 468:	00357793          	andi	a5,a0,3
 46c:	00072703          	lw	a4,0(a4)
 470:	00379693          	slli	a3,a5,0x3
 474:	00d617b3          	sll	a5,a2,a3
 478:	00e7f7b3          	and	a5,a5,a4
 47c:	00d7d7b3          	srl	a5,a5,a3
 480:	fc079ae3          	bnez	a5,454 <printStr+0x2c>
 484:	00008067          	ret

00000488 <toHostExit>:
 488:	01051513          	slli	a0,a0,0x10
 48c:	01055513          	srli	a0,a0,0x10
 490:	78051073          	csrw	mtohost,a0
 494:	0000006f          	j	494 <toHostExit+0xc>

00000498 <handle_trap>:
 498:	00458513          	addi	a0,a1,4
 49c:	00008067          	ret

000004a0 <_init>:
 4a0:	ff010113          	addi	sp,sp,-16
 4a4:	00000593          	li	a1,0
 4a8:	00000513          	li	a0,0
 4ac:	00112623          	sw	ra,12(sp)
 4b0:	014000ef          	jal	4c4 <main>
 4b4:	01051513          	slli	a0,a0,0x10
 4b8:	01055513          	srli	a0,a0,0x10
 4bc:	78051073          	csrw	mtohost,a0
 4c0:	0000006f          	j	4c0 <_init+0x20>

Disassembly of section .text.startup:

000004c4 <main>:
 4c4:	ffffb337          	lui	t1,0xffffb
 4c8:	81010113          	addi	sp,sp,-2032
 4cc:	7d030313          	addi	t1,t1,2000 # ffffb7d0 <_gp+0xfffeb908>
 4d0:	00000537          	lui	a0,0x0
 4d4:	7e112623          	sw	ra,2028(sp)
 4d8:	7e812423          	sw	s0,2024(sp)
 4dc:	7e912223          	sw	s1,2020(sp)
 4e0:	7f212023          	sw	s2,2016(sp)
 4e4:	7d312e23          	sw	s3,2012(sp)
 4e8:	7d412c23          	sw	s4,2008(sp)
 4ec:	7d512a23          	sw	s5,2004(sp)
 4f0:	7d612823          	sw	s6,2000(sp)
 4f4:	67c50513          	addi	a0,a0,1660 # 67c <main+0x1b8>
 4f8:	00610133          	add	sp,sp,t1
 4fc:	f2dff0ef          	jal	428 <printStr>
 500:	c0002b73          	rdcycle	s6
 504:	c0202af3          	rdinstret	s5
 508:	6c800413          	li	s0,1736
 50c:	000054b7          	lui	s1,0x5
 510:	000059b7          	lui	s3,0x5
 514:	00010a13          	mv	s4,sp
 518:	6c848493          	addi	s1,s1,1736 # 56c8 <input_data2>
 51c:	013409b3          	add	s3,s0,s3
 520:	00010913          	mv	s2,sp
 524:	0004a583          	lw	a1,0(s1)
 528:	00042503          	lw	a0,0(s0)
 52c:	00440413          	addi	s0,s0,4
 530:	00448493          	addi	s1,s1,4
 534:	e89ff0ef          	jal	3bc <multiply>
 538:	00a92023          	sw	a0,0(s2)
 53c:	00490913          	addi	s2,s2,4
 540:	ff3412e3          	bne	s0,s3,524 <main+0x60>
 544:	c00027f3          	rdcycle	a5
 548:	416784b3          	sub	s1,a5,s6
 54c:	c0202473          	rdinstret	s0
 550:	00000537          	lui	a0,0x0
 554:	69050513          	addi	a0,a0,1680 # 690 <main+0x1cc>
 558:	ed1ff0ef          	jal	428 <printStr>
 55c:	00048513          	mv	a0,s1
 560:	e89ff0ef          	jal	3e8 <printInt>
 564:	00a00513          	li	a0,10
 568:	ea9ff0ef          	jal	410 <printChar>
 56c:	00000537          	lui	a0,0x0
 570:	69c50513          	addi	a0,a0,1692 # 69c <main+0x1d8>
 574:	41540433          	sub	s0,s0,s5
 578:	eb1ff0ef          	jal	428 <printStr>
 57c:	00040513          	mv	a0,s0
 580:	e69ff0ef          	jal	3e8 <printInt>
 584:	00a00513          	li	a0,10
 588:	e89ff0ef          	jal	410 <printChar>
 58c:	0000a7b7          	lui	a5,0xa
 590:	00001637          	lui	a2,0x1
 594:	6c878793          	addi	a5,a5,1736 # a6c8 <verify_data>
 598:	00000513          	li	a0,0
 59c:	40060613          	addi	a2,a2,1024 # 1400 <input_data1+0xd38>
 5a0:	00c0006f          	j	5ac <main+0xe8>
 5a4:	00150513          	addi	a0,a0,1
 5a8:	06c50863          	beq	a0,a2,618 <main+0x154>
 5ac:	000a2683          	lw	a3,0(s4)
 5b0:	0007a703          	lw	a4,0(a5)
 5b4:	004a0a13          	addi	s4,s4,4
 5b8:	00478793          	addi	a5,a5,4
 5bc:	fee684e3          	beq	a3,a4,5a4 <main+0xe0>
 5c0:	00150413          	addi	s0,a0,1
 5c4:	00000537          	lui	a0,0x0
 5c8:	6a850513          	addi	a0,a0,1704 # 6a8 <main+0x1e4>
 5cc:	e5dff0ef          	jal	428 <printStr>
 5d0:	00040513          	mv	a0,s0
 5d4:	e15ff0ef          	jal	3e8 <printInt>
 5d8:	00a00513          	li	a0,10
 5dc:	e35ff0ef          	jal	410 <printChar>
 5e0:	00005337          	lui	t1,0x5
 5e4:	83030313          	addi	t1,t1,-2000 # 4830 <input_data1+0x4168>
 5e8:	00610133          	add	sp,sp,t1
 5ec:	7ec12083          	lw	ra,2028(sp)
 5f0:	00040513          	mv	a0,s0
 5f4:	7e412483          	lw	s1,2020(sp)
 5f8:	7e812403          	lw	s0,2024(sp)
 5fc:	7e012903          	lw	s2,2016(sp)
 600:	7dc12983          	lw	s3,2012(sp)
 604:	7d812a03          	lw	s4,2008(sp)
 608:	7d412a83          	lw	s5,2004(sp)
 60c:	7d012b03          	lw	s6,2000(sp)
 610:	7f010113          	addi	sp,sp,2032
 614:	00008067          	ret
 618:	00000413          	li	s0,0
 61c:	fa9ff06f          	j	5c4 <main+0x100>
 620:	00000637          	lui	a2,0x0
 624:	6b060793          	addi	a5,a2,1712 # 6b0 <main+0x1ec>
 628:	ffc7f793          	andi	a5,a5,-4
 62c:	0007c783          	lbu	a5,0(a5)
 630:	04078263          	beqz	a5,674 <main+0x1b0>
 634:	000105b7          	lui	a1,0x10
 638:	6b060613          	addi	a2,a2,1712
 63c:	fff58813          	addi	a6,a1,-1 # ffff <_gp+0x137>
 640:	0ff00513          	li	a0,255
 644:	0107f7b3          	and	a5,a5,a6
 648:	00b7e7b3          	or	a5,a5,a1
 64c:	78079073          	csrw	mtohost,a5
 650:	00160613          	addi	a2,a2,1
 654:	ffc67713          	andi	a4,a2,-4
 658:	00367793          	andi	a5,a2,3
 65c:	00072703          	lw	a4,0(a4)
 660:	00379693          	slli	a3,a5,0x3
 664:	00d517b3          	sll	a5,a0,a3
 668:	00e7f7b3          	and	a5,a5,a4
 66c:	00d7d7b3          	srl	a5,a5,a3
 670:	fc079ae3          	bnez	a5,644 <main+0x180>
 674:	fff00513          	li	a0,-1
 678:	00008067          	ret
