
/home/avl/Code/riscv-sim/programs/bigbenchmarks/../build/bigbenchmarks/bin/qsort.riscv:     file format elf32-littleriscv


Disassembly of section .text:

00000100 <user_trap_entry>:
 100:	1a40006f          	j	2a4 <trap_entry>
 104:	00000013          	nop
 108:	00000013          	nop
 10c:	00000013          	nop
 110:	00000013          	nop
 114:	00000013          	nop
 118:	00000013          	nop
 11c:	00000013          	nop
 120:	00000013          	nop
 124:	00000013          	nop
 128:	00000013          	nop
 12c:	00000013          	nop
 130:	00000013          	nop
 134:	00000013          	nop
 138:	00000013          	nop
 13c:	00000013          	nop

00000140 <supervisor_trap_entry>:
 140:	0000006f          	j	140 <supervisor_trap_entry>
 144:	00000013          	nop
 148:	00000013          	nop
 14c:	00000013          	nop
 150:	00000013          	nop
 154:	00000013          	nop
 158:	00000013          	nop
 15c:	00000013          	nop
 160:	00000013          	nop
 164:	00000013          	nop
 168:	00000013          	nop
 16c:	00000013          	nop
 170:	00000013          	nop
 174:	00000013          	nop
 178:	00000013          	nop
 17c:	00000013          	nop

00000180 <hypervisor_trap_entry>:
 180:	0000006f          	j	180 <hypervisor_trap_entry>
 184:	00000013          	nop
 188:	00000013          	nop
 18c:	00000013          	nop
 190:	00000013          	nop
 194:	00000013          	nop
 198:	00000013          	nop
 19c:	00000013          	nop
 1a0:	00000013          	nop
 1a4:	00000013          	nop
 1a8:	00000013          	nop
 1ac:	00000013          	nop
 1b0:	00000013          	nop
 1b4:	00000013          	nop
 1b8:	00000013          	nop
 1bc:	00000013          	nop

000001c0 <machine_trap_entry>:
 1c0:	0e40006f          	j	2a4 <trap_entry>
 1c4:	00000013          	nop
 1c8:	00000013          	nop
 1cc:	00000013          	nop
 1d0:	00000013          	nop
 1d4:	00000013          	nop
 1d8:	00000013          	nop
 1dc:	00000013          	nop
 1e0:	00000013          	nop
 1e4:	00000013          	nop
 1e8:	00000013          	nop
 1ec:	00000013          	nop
 1f0:	00000013          	nop
 1f4:	00000013          	nop
 1f8:	00000013          	nop
 1fc:	00000013          	nop

00000200 <_start>:
 200:	00000093          	li	ra,0
 204:	00000113          	li	sp,0
 208:	00000193          	li	gp,0
 20c:	00000213          	li	tp,0
 210:	00000293          	li	t0,0
 214:	00000313          	li	t1,0
 218:	00000393          	li	t2,0
 21c:	00000413          	li	s0,0
 220:	00000493          	li	s1,0
 224:	00000513          	li	a0,0
 228:	00000593          	li	a1,0
 22c:	00000613          	li	a2,0
 230:	00000693          	li	a3,0
 234:	00000713          	li	a4,0
 238:	00000793          	li	a5,0
 23c:	00000813          	li	a6,0
 240:	00000893          	li	a7,0
 244:	00000913          	li	s2,0
 248:	00000993          	li	s3,0
 24c:	00000a13          	li	s4,0
 250:	00000a93          	li	s5,0
 254:	00000b13          	li	s6,0
 258:	00000b93          	li	s7,0
 25c:	00000c13          	li	s8,0
 260:	00000c93          	li	s9,0
 264:	00000d13          	li	s10,0
 268:	00000d93          	li	s11,0
 26c:	00000e13          	li	t3,0
 270:	00000e93          	li	t4,0
 274:	00000f13          	li	t5,0
 278:	00000f93          	li	t6,0
 27c:	00018193          	mv	gp,gp
 280:	83f18213          	addi	tp,gp,-1985 # 1481b <_end+0x3f>
 284:	fc027213          	andi	tp,tp,-64
 288:	f1002573          	csrr	a0,mhartid
 28c:	01151613          	slli	a2,a0,0x11
 290:	00c20233          	add	tp,tp,a2
 294:	00150113          	addi	sp,a0,1
 298:	01111113          	slli	sp,sp,0x11
 29c:	00410133          	add	sp,sp,tp
 2a0:	3700006f          	j	610 <_init>

000002a4 <trap_entry>:
 2a4:	ef010113          	addi	sp,sp,-272
 2a8:	00112423          	sw	ra,8(sp)
 2ac:	00212823          	sw	sp,16(sp)
 2b0:	00312c23          	sw	gp,24(sp)
 2b4:	02412023          	sw	tp,32(sp)
 2b8:	02512423          	sw	t0,40(sp)
 2bc:	02612823          	sw	t1,48(sp)
 2c0:	02712c23          	sw	t2,56(sp)
 2c4:	04812023          	sw	s0,64(sp)
 2c8:	04912423          	sw	s1,72(sp)
 2cc:	04a12823          	sw	a0,80(sp)
 2d0:	04b12c23          	sw	a1,88(sp)
 2d4:	06c12023          	sw	a2,96(sp)
 2d8:	06d12423          	sw	a3,104(sp)
 2dc:	06e12823          	sw	a4,112(sp)
 2e0:	06f12c23          	sw	a5,120(sp)
 2e4:	09012023          	sw	a6,128(sp)
 2e8:	09112423          	sw	a7,136(sp)
 2ec:	09212823          	sw	s2,144(sp)
 2f0:	09312c23          	sw	s3,152(sp)
 2f4:	0b412023          	sw	s4,160(sp)
 2f8:	0b512423          	sw	s5,168(sp)
 2fc:	0b612823          	sw	s6,176(sp)
 300:	0b712c23          	sw	s7,184(sp)
 304:	0d812023          	sw	s8,192(sp)
 308:	0d912423          	sw	s9,200(sp)
 30c:	0da12823          	sw	s10,208(sp)
 310:	0db12c23          	sw	s11,216(sp)
 314:	0fc12023          	sw	t3,224(sp)
 318:	0fd12423          	sw	t4,232(sp)
 31c:	0fe12823          	sw	t5,240(sp)
 320:	0ff12c23          	sw	t6,248(sp)
 324:	34202573          	csrr	a0,mcause
 328:	341025f3          	csrr	a1,mepc
 32c:	00010613          	mv	a2,sp
 330:	2d8000ef          	jal	608 <handle_trap>
 334:	34151073          	csrw	mepc,a0
 338:	00812083          	lw	ra,8(sp)
 33c:	01012103          	lw	sp,16(sp)
 340:	01812183          	lw	gp,24(sp)
 344:	02012203          	lw	tp,32(sp)
 348:	02812283          	lw	t0,40(sp)
 34c:	03012303          	lw	t1,48(sp)
 350:	03812383          	lw	t2,56(sp)
 354:	04012403          	lw	s0,64(sp)
 358:	04812483          	lw	s1,72(sp)
 35c:	05012503          	lw	a0,80(sp)
 360:	05812583          	lw	a1,88(sp)
 364:	06012603          	lw	a2,96(sp)
 368:	06812683          	lw	a3,104(sp)
 36c:	07012703          	lw	a4,112(sp)
 370:	07812783          	lw	a5,120(sp)
 374:	08012803          	lw	a6,128(sp)
 378:	08812883          	lw	a7,136(sp)
 37c:	09012903          	lw	s2,144(sp)
 380:	09812983          	lw	s3,152(sp)
 384:	0a012a03          	lw	s4,160(sp)
 388:	0a812a83          	lw	s5,168(sp)
 38c:	0b012b03          	lw	s6,176(sp)
 390:	0b812b83          	lw	s7,184(sp)
 394:	0c012c03          	lw	s8,192(sp)
 398:	0c812c83          	lw	s9,200(sp)
 39c:	0d012d03          	lw	s10,208(sp)
 3a0:	0d812d83          	lw	s11,216(sp)
 3a4:	0e012e03          	lw	t3,224(sp)
 3a8:	0e812e83          	lw	t4,232(sp)
 3ac:	0f012f03          	lw	t5,240(sp)
 3b0:	0f812f83          	lw	t6,248(sp)
 3b4:	11010113          	addi	sp,sp,272
 3b8:	10000073          	eret

000003bc <sort>:
 3bc:	f3010113          	addi	sp,sp,-208
 3c0:	00251513          	slli	a0,a0,0x2
 3c4:	00810f93          	addi	t6,sp,8
 3c8:	40000f37          	lui	t5,0x40000
 3cc:	00a58533          	add	a0,a1,a0
 3d0:	00458893          	addi	a7,a1,4
 3d4:	000f8e13          	mv	t3,t6
 3d8:	02700e93          	li	t4,39
 3dc:	ffff0f13          	addi	t5,t5,-1 # 3fffffff <_gp+0x3ffeb023>
 3e0:	411507b3          	sub	a5,a0,a7
 3e4:	04fecc63          	blt	t4,a5,43c <sort+0x80>
 3e8:	ffc7f513          	andi	a0,a5,-4
 3ec:	00a88533          	add	a0,a7,a0
 3f0:	ffc88613          	addi	a2,a7,-4
 3f4:	02a8f863          	bleu	a0,a7,424 <sort+0x68>
 3f8:	0008a683          	lw	a3,0(a7)
 3fc:	00088793          	mv	a5,a7
 400:	0100006f          	j	410 <sort+0x54>
 404:	00e7a023          	sw	a4,0(a5)
 408:	ffc78793          	addi	a5,a5,-4
 40c:	00f60663          	beq	a2,a5,418 <sort+0x5c>
 410:	ffc7a703          	lw	a4,-4(a5)
 414:	fee6c8e3          	blt	a3,a4,404 <sort+0x48>
 418:	00488893          	addi	a7,a7,4
 41c:	00d7a023          	sw	a3,0(a5)
 420:	fca8ece3          	bltu	a7,a0,3f8 <sort+0x3c>
 424:	13fe0663          	beq	t3,t6,550 <sort+0x194>
 428:	000e2503          	lw	a0,0(t3)
 42c:	ffce2883          	lw	a7,-4(t3)
 430:	ff8e0e13          	addi	t3,t3,-8
 434:	411507b3          	sub	a5,a0,a7
 438:	fafed8e3          	ble	a5,t4,3e8 <sort+0x2c>
 43c:	40b88733          	sub	a4,a7,a1
 440:	40b507b3          	sub	a5,a0,a1
 444:	40275693          	srai	a3,a4,0x2
 448:	4027d793          	srai	a5,a5,0x2
 44c:	00f68733          	add	a4,a3,a5
 450:	01f75793          	srli	a5,a4,0x1f
 454:	00e787b3          	add	a5,a5,a4
 458:	4017d793          	srai	a5,a5,0x1
 45c:	01e787b3          	add	a5,a5,t5
 460:	00279793          	slli	a5,a5,0x2
 464:	00f587b3          	add	a5,a1,a5
 468:	0007a703          	lw	a4,0(a5)
 46c:	0008a683          	lw	a3,0(a7)
 470:	00070613          	mv	a2,a4
 474:	00d7a023          	sw	a3,0(a5)
 478:	00e8a023          	sw	a4,0(a7)
 47c:	ffc52783          	lw	a5,-4(a0)
 480:	ffc8a703          	lw	a4,-4(a7)
 484:	00e7da63          	ble	a4,a5,498 <sort+0xdc>
 488:	fef8ae23          	sw	a5,-4(a7)
 48c:	fee52e23          	sw	a4,-4(a0)
 490:	0008a603          	lw	a2,0(a7)
 494:	00070793          	mv	a5,a4
 498:	00c7d863          	ble	a2,a5,4a8 <sort+0xec>
 49c:	00f8a023          	sw	a5,0(a7)
 4a0:	fec52e23          	sw	a2,-4(a0)
 4a4:	0008a603          	lw	a2,0(a7)
 4a8:	ffc8a783          	lw	a5,-4(a7)
 4ac:	00f65863          	ble	a5,a2,4bc <sort+0x100>
 4b0:	fec8ae23          	sw	a2,-4(a7)
 4b4:	00f8a023          	sw	a5,0(a7)
 4b8:	00078613          	mv	a2,a5
 4bc:	00488813          	addi	a6,a7,4
 4c0:	00050713          	mv	a4,a0
 4c4:	00480813          	addi	a6,a6,4
 4c8:	ffc82303          	lw	t1,-4(a6)
 4cc:	fec34ce3          	blt	t1,a2,4c4 <sort+0x108>
 4d0:	ffc70793          	addi	a5,a4,-4
 4d4:	ffc7a683          	lw	a3,-4(a5)
 4d8:	00d65a63          	ble	a3,a2,4ec <sort+0x130>
 4dc:	00078713          	mv	a4,a5
 4e0:	ffc70793          	addi	a5,a4,-4
 4e4:	ffc7a683          	lw	a3,-4(a5)
 4e8:	fed64ae3          	blt	a2,a3,4dc <sort+0x120>
 4ec:	0107ea63          	bltu	a5,a6,500 <sort+0x144>
 4f0:	fed82e23          	sw	a3,-4(a6)
 4f4:	fe672c23          	sw	t1,-8(a4)
 4f8:	00078713          	mv	a4,a5
 4fc:	fc9ff06f          	j	4c4 <sort+0x108>
 500:	41050333          	sub	t1,a0,a6
 504:	40235313          	srai	t1,t1,0x2
 508:	411787b3          	sub	a5,a5,a7
 50c:	00130313          	addi	t1,t1,1
 510:	4027d793          	srai	a5,a5,0x2
 514:	00d8a023          	sw	a3,0(a7)
 518:	008e0693          	addi	a3,t3,8
 51c:	fec72c23          	sw	a2,-8(a4)
 520:	00f34c63          	blt	t1,a5,538 <sort+0x17c>
 524:	00ae2423          	sw	a0,8(t3)
 528:	010e2223          	sw	a6,4(t3)
 52c:	ff870513          	addi	a0,a4,-8
 530:	00068e13          	mv	t3,a3
 534:	eadff06f          	j	3e0 <sort+0x24>
 538:	ff870713          	addi	a4,a4,-8
 53c:	011e2223          	sw	a7,4(t3)
 540:	00ee2423          	sw	a4,8(t3)
 544:	00080893          	mv	a7,a6
 548:	00068e13          	mv	t3,a3
 54c:	e95ff06f          	j	3e0 <sort+0x24>
 550:	0d010113          	addi	sp,sp,208
 554:	00008067          	ret

00000558 <printInt>:
 558:	01051713          	slli	a4,a0,0x10
 55c:	01075713          	srli	a4,a4,0x10
 560:	000207b7          	lui	a5,0x20
 564:	00f767b3          	or	a5,a4,a5
 568:	78079073          	csrw	mtohost,a5
 56c:	000307b7          	lui	a5,0x30
 570:	01055513          	srli	a0,a0,0x10
 574:	00f56533          	or	a0,a0,a5
 578:	78051073          	csrw	mtohost,a0
 57c:	00008067          	ret

00000580 <printChar>:
 580:	01051513          	slli	a0,a0,0x10
 584:	000107b7          	lui	a5,0x10
 588:	01055513          	srli	a0,a0,0x10
 58c:	00f56533          	or	a0,a0,a5
 590:	78051073          	csrw	mtohost,a0
 594:	00008067          	ret

00000598 <printStr>:
 598:	ffc57713          	andi	a4,a0,-4
 59c:	00357793          	andi	a5,a0,3
 5a0:	00072703          	lw	a4,0(a4)
 5a4:	00379693          	slli	a3,a5,0x3
 5a8:	0ff00613          	li	a2,255
 5ac:	00d617b3          	sll	a5,a2,a3
 5b0:	00e7f7b3          	and	a5,a5,a4
 5b4:	00d7d7b3          	srl	a5,a5,a3
 5b8:	02078e63          	beqz	a5,5f4 <printStr+0x5c>
 5bc:	000105b7          	lui	a1,0x10
 5c0:	fff58813          	addi	a6,a1,-1 # ffff <verify_data+0x5823>
 5c4:	0107f7b3          	and	a5,a5,a6
 5c8:	00b7e7b3          	or	a5,a5,a1
 5cc:	78079073          	csrw	mtohost,a5
 5d0:	00150513          	addi	a0,a0,1
 5d4:	ffc57713          	andi	a4,a0,-4
 5d8:	00357793          	andi	a5,a0,3
 5dc:	00072703          	lw	a4,0(a4)
 5e0:	00379693          	slli	a3,a5,0x3
 5e4:	00d617b3          	sll	a5,a2,a3
 5e8:	00e7f7b3          	and	a5,a5,a4
 5ec:	00d7d7b3          	srl	a5,a5,a3
 5f0:	fc079ae3          	bnez	a5,5c4 <printStr+0x2c>
 5f4:	00008067          	ret

000005f8 <toHostExit>:
 5f8:	01051513          	slli	a0,a0,0x10
 5fc:	01055513          	srli	a0,a0,0x10
 600:	78051073          	csrw	mtohost,a0
 604:	0000006f          	j	604 <toHostExit+0xc>

00000608 <handle_trap>:
 608:	00458513          	addi	a0,a1,4
 60c:	00008067          	ret

00000610 <_init>:
 610:	ff010113          	addi	sp,sp,-16
 614:	00000593          	li	a1,0
 618:	00000513          	li	a0,0
 61c:	00112623          	sw	ra,12(sp)
 620:	014000ef          	jal	634 <main>
 624:	01051513          	slli	a0,a0,0x10
 628:	01055513          	srli	a0,a0,0x10
 62c:	78051073          	csrw	mtohost,a0
 630:	0000006f          	j	630 <_init+0x20>

Disassembly of section .text.startup:

00000634 <main>:
 634:	00000537          	lui	a0,0x0
 638:	fe010113          	addi	sp,sp,-32
 63c:	79050513          	addi	a0,a0,1936 # 790 <main+0x15c>
 640:	00112e23          	sw	ra,28(sp)
 644:	00812c23          	sw	s0,24(sp)
 648:	00912a23          	sw	s1,20(sp)
 64c:	01212823          	sw	s2,16(sp)
 650:	01312623          	sw	s3,12(sp)
 654:	f45ff0ef          	jal	598 <printStr>
 658:	c00029f3          	rdcycle	s3
 65c:	c0202973          	rdinstret	s2
 660:	000034b7          	lui	s1,0x3
 664:	7dc00593          	li	a1,2012
 668:	80048513          	addi	a0,s1,-2048 # 2800 <input_data+0x2024>
 66c:	d51ff0ef          	jal	3bc <sort>
 670:	c00027f3          	rdcycle	a5
 674:	413789b3          	sub	s3,a5,s3
 678:	c02027f3          	rdinstret	a5
 67c:	00000537          	lui	a0,0x0
 680:	7a450513          	addi	a0,a0,1956 # 7a4 <main+0x170>
 684:	41278933          	sub	s2,a5,s2
 688:	f11ff0ef          	jal	598 <printStr>
 68c:	00098513          	mv	a0,s3
 690:	ec9ff0ef          	jal	558 <printInt>
 694:	00a00513          	li	a0,10
 698:	ee9ff0ef          	jal	580 <printChar>
 69c:	00000537          	lui	a0,0x0
 6a0:	7b050513          	addi	a0,a0,1968 # 7b0 <main+0x17c>
 6a4:	ef5ff0ef          	jal	598 <printStr>
 6a8:	00090513          	mv	a0,s2
 6ac:	eadff0ef          	jal	558 <printInt>
 6b0:	00a00513          	li	a0,10
 6b4:	ecdff0ef          	jal	580 <printChar>
 6b8:	0000a737          	lui	a4,0xa
 6bc:	7dc00793          	li	a5,2012
 6c0:	7dc70713          	addi	a4,a4,2012 # a7dc <verify_data>
 6c4:	00000513          	li	a0,0
 6c8:	80048593          	addi	a1,s1,-2048
 6cc:	00c0006f          	j	6d8 <main+0xa4>
 6d0:	00150513          	addi	a0,a0,1
 6d4:	04b50c63          	beq	a0,a1,72c <main+0xf8>
 6d8:	0007a603          	lw	a2,0(a5) # 10000 <verify_data+0x5824>
 6dc:	00072683          	lw	a3,0(a4)
 6e0:	00478793          	addi	a5,a5,4
 6e4:	00470713          	addi	a4,a4,4
 6e8:	fed604e3          	beq	a2,a3,6d0 <main+0x9c>
 6ec:	00150413          	addi	s0,a0,1
 6f0:	00000537          	lui	a0,0x0
 6f4:	7bc50513          	addi	a0,a0,1980 # 7bc <main+0x188>
 6f8:	ea1ff0ef          	jal	598 <printStr>
 6fc:	00040513          	mv	a0,s0
 700:	e59ff0ef          	jal	558 <printInt>
 704:	00a00513          	li	a0,10
 708:	e79ff0ef          	jal	580 <printChar>
 70c:	01c12083          	lw	ra,28(sp)
 710:	00040513          	mv	a0,s0
 714:	01412483          	lw	s1,20(sp)
 718:	01812403          	lw	s0,24(sp)
 71c:	01012903          	lw	s2,16(sp)
 720:	00c12983          	lw	s3,12(sp)
 724:	02010113          	addi	sp,sp,32
 728:	00008067          	ret
 72c:	00000413          	li	s0,0
 730:	fc1ff06f          	j	6f0 <main+0xbc>
 734:	00000637          	lui	a2,0x0
 738:	7c460793          	addi	a5,a2,1988 # 7c4 <main+0x190>
 73c:	ffc7f793          	andi	a5,a5,-4
 740:	0007c783          	lbu	a5,0(a5)
 744:	04078263          	beqz	a5,788 <main+0x154>
 748:	000105b7          	lui	a1,0x10
 74c:	7c460613          	addi	a2,a2,1988
 750:	fff58813          	addi	a6,a1,-1 # ffff <verify_data+0x5823>
 754:	0ff00513          	li	a0,255
 758:	0107f7b3          	and	a5,a5,a6
 75c:	00b7e7b3          	or	a5,a5,a1
 760:	78079073          	csrw	mtohost,a5
 764:	00160613          	addi	a2,a2,1
 768:	ffc67713          	andi	a4,a2,-4
 76c:	00367793          	andi	a5,a2,3
 770:	00072703          	lw	a4,0(a4)
 774:	00379693          	slli	a3,a5,0x3
 778:	00d517b3          	sll	a5,a0,a3
 77c:	00e7f7b3          	and	a5,a5,a4
 780:	00d7d7b3          	srl	a5,a5,a3
 784:	fc079ae3          	bnez	a5,758 <main+0x124>
 788:	fff00513          	li	a0,-1
 78c:	00008067          	ret
